; Function Attrs: mustprogress nounwind uwtable
define hidden void @_ZN12ConstantPool23remove_unshareable_infoEv(ptr noundef nonnull align 8 dereferenceable(68) %0) local_unnamed_addr #0 align 2 {
  %2 = getelementptr inbounds i8, ptr %0, i64 56
  %3 = load i16, ptr %2, align 8
  %4 = or i16 %3, 6
  store i16 %4, ptr %2, align 8
  %5 = getelementptr inbounds i8, ptr %0, i64 16
  %6 = load ptr, ptr %5, align 8
  %.not = icmp eq ptr %6, null
  br i1 %.not, label %26, label %7

7:                                                ; preds = %1
  %8 = getelementptr inbounds i8, ptr %6, i64 16
  %9 = load ptr, ptr %8, align 8
  %10 = icmp eq ptr %9, null
  br i1 %10, label %_ZNK12ConstantPool19resolved_referencesEv.exit.thread, label %_ZNK12ConstantPool19resolved_referencesEv.exit

_ZNK12ConstantPool19resolved_referencesEv.exit:   ; preds = %7
  %11 = load ptr, ptr @_ZN14AccessInternal15RuntimeDispatchILm548932EP7oopDescLNS_11BarrierTypeE2EE10_load_funcE, align 8
  %12 = tail call noundef ptr %11(ptr noundef nonnull %9) #17
  %.not1 = icmp eq ptr %12, null
  %.pre4 = load ptr, ptr %5, align 8
  br i1 %.not1, label %_ZNK12ConstantPool19resolved_referencesEv.exit.thread, label %_ZNK12ConstantPool19resolved_referencesEv.exit2

_ZNK12ConstantPool19resolved_referencesEv.exit2:  ; preds = %_ZNK12ConstantPool19resolved_referencesEv.exit
  %13 = getelementptr inbounds i8, ptr %.pre4, i64 16
  %14 = load ptr, ptr %13, align 8, !nonnull !10, !noundef !10
  %15 = load ptr, ptr @_ZN14AccessInternal15RuntimeDispatchILm548932EP7oopDescLNS_11BarrierTypeE2EE10_load_funcE, align 8
  %16 = tail call noundef ptr %15(ptr noundef nonnull %14) #17
  %17 = load i8, ptr @UseCompressedClassPointers, align 1
  %18 = trunc i8 %17 to i1
  %19 = select i1 %18, i64 12, i64 16
  %20 = getelementptr inbounds i8, ptr %16, i64 %19
  %21 = load i32, ptr %20, align 4
  %.pre = load ptr, ptr %5, align 8
  br label %_ZNK12ConstantPool19resolved_referencesEv.exit.thread

_ZNK12ConstantPool19resolved_referencesEv.exit.thread: ; preds = %7, %_ZNK12ConstantPool19resolved_referencesEv.exit, %_ZNK12ConstantPool19resolved_referencesEv.exit2
  %22 = phi ptr [ %.pre, %_ZNK12ConstantPool19resolved_referencesEv.exit2 ], [ %.pre4, %_ZNK12ConstantPool19resolved_referencesEv.exit ], [ %6, %7 ]
  %23 = phi i32 [ %21, %_ZNK12ConstantPool19resolved_referencesEv.exit2 ], [ 0, %_ZNK12ConstantPool19resolved_referencesEv.exit ], [ 0, %7 ]
  %24 = getelementptr inbounds i8, ptr %0, i64 64
  store i32 %23, ptr %24, align 8
  %25 = getelementptr inbounds i8, ptr %22, i64 16
  store ptr null, ptr %25, align 8
  br label %26

26:                                               ; preds = %_ZNK12ConstantPool19resolved_referencesEv.exit.thread, %1
  tail call void @_ZN12ConstantPool26remove_unshareable_entriesEv(ptr noundef nonnull align 8 dereferenceable(68) %0)
  ret void
}